target datalayout = "e-m:e-p270:32:32-p271:32:32-p272:64:64-i64:64-i128:128-f80:128-n8:16:32:64-S128"
target triple = "x86_64-pc-linux-gnu"

%struct.option = type { i32, i32, ptr, ptr, ptr, ptr, i32, ptr, i64, ptr, i64, ptr }
%struct.diagnose_option = type { i32, ptr }

@.str = private unnamed_addr constant [24 x i8] c"invalid --%s value '%s'\00", align 1
@diagnose_options = internal global [2 x { i32, [4 x i8], ptr }] [{ i32, [4 x i8], ptr } { i32 1, [4 x i8] zeroinitializer, ptr @.str.21 }, { i32, [4 x i8], ptr } { i32 2, [4 x i8] zeroinitializer, ptr @.str.22 }], align 16
@.str.24 = private unnamed_addr constant [1 x i8] zeroinitializer, align 1
@git_gettext_enabled = external global i32, align 4

; Function Attrs: inlinehint nounwind uwtable
define internal i32 @const_error() #4 {
  ret i32 -1
}

; Function Attrs: inlinehint nounwind uwtable
define internal ptr @_(ptr noundef %0) #4 {
  %2 = alloca ptr, align 8
  %3 = alloca ptr, align 8
  store ptr %0, ptr %3, align 8, !tbaa !9
  %4 = load ptr, ptr %3, align 8, !tbaa !9
  %5 = load i8, ptr %4, align 1, !tbaa !24
  %6 = icmp ne i8 %5, 0
  br i1 %6, label %8, label %7

7:                                                ; preds = %1
  store ptr @.str.24, ptr %2, align 8
  br label %16

8:                                                ; preds = %1
  %9 = load i32, ptr @git_gettext_enabled, align 4, !tbaa !11
  %10 = icmp ne i32 %9, 0
  br i1 %10, label %13, label %11

11:                                               ; preds = %8
  %12 = load ptr, ptr %3, align 8, !tbaa !9
  store ptr %12, ptr %2, align 8
  br label %16

13:                                               ; preds = %8
  %14 = load ptr, ptr %3, align 8, !tbaa !9
  %15 = call ptr @dcgettext(ptr noundef null, ptr noundef %14, i32 noundef 5) #9
  store ptr %15, ptr %2, align 8
  br label %16

16:                                               ; preds = %13, %11, %7
  %17 = load ptr, ptr %2, align 8
  ret ptr %17
}

; Function Attrs: nounwind uwtable
define dso_local i32 @option_parse_diagnose(ptr noundef %0, ptr noundef %1, i32 noundef %2) #0 {
  %4 = alloca i32, align 4
  %5 = alloca ptr, align 8
  %6 = alloca ptr, align 8
  %7 = alloca i32, align 4
  %8 = alloca ptr, align 8
  %9 = alloca i32, align 4
  %10 = alloca i64, align 8
  store ptr %0, ptr %5, align 8, !tbaa !4
  store ptr %1, ptr %6, align 8, !tbaa !9
  store i32 %2, ptr %7, align 4, !tbaa !11
  call void @llvm.lifetime.start.p0(i64 8, ptr %8) #9
  %11 = load ptr, ptr %5, align 8, !tbaa !4
  %12 = getelementptr inbounds nuw %struct.option, ptr %11, i32 0, i32 3
  %13 = load ptr, ptr %12, align 8, !tbaa !13
  store ptr %13, ptr %8, align 8, !tbaa !16
  %14 = load ptr, ptr %6, align 8, !tbaa !9
  %15 = icmp ne ptr %14, null
  br i1 %15, label %21, label %16

16:                                               ; preds = %3
  %17 = load i32, ptr %7, align 4, !tbaa !11
  %18 = icmp ne i32 %17, 0
  %19 = select i1 %18, i32 0, i32 1
  %20 = load ptr, ptr %8, align 8, !tbaa !16
  store i32 %19, ptr %20, align 4, !tbaa !11
  store i32 0, ptr %4, align 4
  store i32 1, ptr %9, align 4
  br label %54

21:                                               ; preds = %3
  call void @llvm.lifetime.start.p0(i64 8, ptr %10) #9
  store i64 0, ptr %10, align 8, !tbaa !17
  br label %22

22:                                               ; preds = %41, %21
  %23 = load i64, ptr %10, align 8, !tbaa !17
  %24 = icmp ult i64 %23, 2
  br i1 %24, label %26, label %25

25:                                               ; preds = %22
  store i32 2, ptr %9, align 4
  br label %44

26:                                               ; preds = %22
  %27 = load ptr, ptr %6, align 8, !tbaa !9
  %28 = load i64, ptr %10, align 8, !tbaa !17
  %29 = getelementptr inbounds nuw [2 x %struct.diagnose_option], ptr @diagnose_options, i64 0, i64 %28
  %30 = getelementptr inbounds nuw %struct.diagnose_option, ptr %29, i32 0, i32 1
  %31 = load ptr, ptr %30, align 8, !tbaa !18
  %32 = call i32 @strcmp(ptr noundef %27, ptr noundef %31) #10
  %33 = icmp ne i32 %32, 0
  br i1 %33, label %40, label %34

34:                                               ; preds = %26
  %35 = load i64, ptr %10, align 8, !tbaa !17
  %36 = getelementptr inbounds nuw [2 x %struct.diagnose_option], ptr @diagnose_options, i64 0, i64 %35
  %37 = getelementptr inbounds nuw %struct.diagnose_option, ptr %36, i32 0, i32 0
  %38 = load i32, ptr %37, align 16, !tbaa !20
  %39 = load ptr, ptr %8, align 8, !tbaa !16
  store i32 %38, ptr %39, align 4, !tbaa !11
  store i32 0, ptr %4, align 4
  store i32 1, ptr %9, align 4
  br label %44

40:                                               ; preds = %26
  br label %41

41:                                               ; preds = %40
  %42 = load i64, ptr %10, align 8, !tbaa !17
  %43 = add i64 %42, 1
  store i64 %43, ptr %10, align 8, !tbaa !17
  br label %22, !llvm.loop !21

44:                                               ; preds = %34, %25
  call void @llvm.lifetime.end.p0(i64 8, ptr %10) #9
  %45 = load i32, ptr %9, align 4
  switch i32 %45, label %54 [
    i32 2, label %46
  ]

46:                                               ; preds = %44
  %47 = call ptr @_(ptr noundef @.str)
  %48 = load ptr, ptr %5, align 8, !tbaa !4
  %49 = getelementptr inbounds nuw %struct.option, ptr %48, i32 0, i32 2
  %50 = load ptr, ptr %49, align 8, !tbaa !23
  %51 = load ptr, ptr %6, align 8, !tbaa !9
  %52 = call i32 (ptr, ...) @error(ptr noundef %47, ptr noundef %50, ptr noundef %51)
  %53 = call i32 @const_error()
  store i32 %53, ptr %4, align 4
  store i32 1, ptr %9, align 4
  br label %54

54:                                               ; preds = %46, %44, %16
  call void @llvm.lifetime.end.p0(i64 8, ptr %8) #9
  %55 = load i32, ptr %4, align 4
  ret i32 %55
}