; Function Attrs: nounwind uwtable
define dso_local range(i32 -1, 1) i32 @option_parse_diagnose(ptr noundef readonly captures(none) %0, ptr noundef %1, i32 noundef %2) local_unnamed_addr #0 {
  %4 = getelementptr inbounds nuw i8, ptr %0, i64 16
  %5 = load ptr, ptr %4, align 8, !tbaa !4
  %.not = icmp eq ptr %1, null
  br i1 %.not, label %6, label %.preheader

6:                                                ; preds = %3
  %.not16 = icmp eq i32 %2, 0
  %7 = zext i1 %.not16 to i32
  store i32 %7, ptr %5, align 4, !tbaa !12
  br label %21

8:                                                ; preds = %.preheader
  br i1 %.not19, label %.preheader, label %.critedge, !llvm.loop !13

.preheader:                                       ; preds = %3, %8
  %.not19 = phi i1 [ false, %8 ], [ true, %3 ]
  %.018 = phi i64 [ 1, %8 ], [ 0, %3 ]
  %9 = getelementptr inbounds nuw [2 x %struct.diagnose_option], ptr @diagnose_options, i64 0, i64 %.018
  %10 = getelementptr inbounds nuw i8, ptr %9, i64 8
  %11 = load ptr, ptr %10, align 8, !tbaa !15
  %12 = tail call i32 @strcmp(ptr noundef nonnull dereferenceable(1) %1, ptr noundef nonnull dereferenceable(1) %11) #11
  %.not17 = icmp eq i32 %12, 0
  br i1 %.not17, label %13, label %8

13:                                               ; preds = %.preheader
  %14 = load i32, ptr %9, align 16, !tbaa !17
  store i32 %14, ptr %5, align 4, !tbaa !12
  br label %21

.critedge:                                        ; preds = %8
  %15 = load i32, ptr @git_gettext_enabled, align 4, !tbaa !12
  %.not4.i = icmp eq i32 %15, 0
  br i1 %.not4.i, label %_.exit, label %16

16:                                               ; preds = %.critedge
  %17 = tail call ptr @dcgettext(ptr noundef null, ptr noundef nonnull @.str, i32 noundef 5) #12
  br label %_.exit

_.exit:                                           ; preds = %.critedge, %16
  %.0.i = phi ptr [ %17, %16 ], [ @.str, %.critedge ]
  %18 = getelementptr inbounds nuw i8, ptr %0, i64 8
  %19 = load ptr, ptr %18, align 8, !tbaa !18
  %20 = tail call i32 (ptr, ...) @error(ptr noundef %.0.i, ptr noundef %19, ptr noundef nonnull %1) #12
  br label %21

21:                                               ; preds = %13, %_.exit, %6
  %.014 = phi i32 [ -1, %_.exit ], [ 0, %13 ], [ 0, %6 ]
  ret i32 %.014
}